target datalayout = "e-m:e-p270:32:32-p271:32:32-p272:64:64-i64:64-i128:128-f80:128-n8:16:32:64-S128"
target triple = "x86_64-pc-linux-gnu"

%struct.H5FD_log_fapl_t = type { ptr, i64, i64 }
%struct.H5FD_log_t = type { %struct.H5FD_t, i32, i64, i64, i8, [1024 x i8], i64, i64, i8, ptr, ptr, ptr, i64, i64, i64, i64, double, double, double, double, i64, ptr, %struct.H5FD_log_fapl_t }
%struct.H5FD_t = type { i64, ptr, i64, i32, i64, i64, i64, i64, i64, i8 }

@H5FD_init_g = external global i8, align 1
@H5_libterm_g = external global i8, align 1
@flavors = internal global [7 x ptr] [ptr @.str.42, ptr @.str.43, ptr @.str.44, ptr @.str.45, ptr @.str.46, ptr @.str.47, ptr @.str.48], align 16
@.str.49 = private unnamed_addr constant [42 x i8] c"%10lu-%10lu (%10lu bytes) (%s) Allocated\0A\00", align 1

; Function Attrs: nounwind uwtable
define internal i64 @H5FD__log_alloc(ptr noundef %0, i32 noundef %1, i64 noundef %2, i64 noundef %3) #0 {
  %5 = alloca ptr, align 8
  %6 = alloca i32, align 4
  %7 = alloca i64, align 8
  %8 = alloca i64, align 8
  %9 = alloca ptr, align 8
  %10 = alloca i64, align 8
  %11 = alloca i64, align 8
  store ptr %0, ptr %5, align 8, !tbaa !24
  store i32 %1, ptr %6, align 4, !tbaa !3
  store i64 %2, ptr %7, align 8, !tbaa !11
  store i64 %3, ptr %8, align 8, !tbaa !11
  call void @llvm.lifetime.start.p0(i64 8, ptr %9) #9
  %12 = load ptr, ptr %5, align 8, !tbaa !24
  store ptr %12, ptr %9, align 8, !tbaa !26
  call void @llvm.lifetime.start.p0(i64 8, ptr %10) #9
  call void @llvm.lifetime.start.p0(i64 8, ptr %11) #9
  store i64 -1, ptr %11, align 8, !tbaa !11
  %13 = load i8, ptr @H5FD_init_g, align 1, !tbaa !7, !range !9, !noundef !10
  %14 = trunc i8 %13 to i1
  br i1 %14, label %19, label %15

15:                                               ; preds = %4
  %16 = load i8, ptr @H5_libterm_g, align 1, !tbaa !7, !range !9, !noundef !10
  %17 = trunc i8 %16 to i1
  %18 = xor i1 %17, true
  br label %19

19:                                               ; preds = %15, %4
  %20 = phi i1 [ true, %4 ], [ %18, %15 ]
  %21 = xor i1 %20, true
  %22 = xor i1 %21, true
  %23 = zext i1 %22 to i32
  %24 = sext i32 %23 to i64
  %25 = call i64 @llvm.expect.i64(i64 %24, i64 1)
  %26 = icmp ne i64 %25, 0
  br i1 %26, label %27, label %82

27:                                               ; preds = %19
  %28 = load ptr, ptr %9, align 8, !tbaa !26
  %29 = getelementptr inbounds nuw %struct.H5FD_log_t, ptr %28, i32 0, i32 2
  %30 = load i64, ptr %29, align 8, !tbaa !66
  store i64 %30, ptr %10, align 8, !tbaa !11
  %31 = load i64, ptr %10, align 8, !tbaa !11
  %32 = load i64, ptr %8, align 8, !tbaa !11
  %33 = add i64 %31, %32
  %34 = load ptr, ptr %9, align 8, !tbaa !26
  %35 = getelementptr inbounds nuw %struct.H5FD_log_t, ptr %34, i32 0, i32 2
  store i64 %33, ptr %35, align 8, !tbaa !66
  %36 = load ptr, ptr %9, align 8, !tbaa !26
  %37 = getelementptr inbounds nuw %struct.H5FD_log_t, ptr %36, i32 0, i32 22
  %38 = getelementptr inbounds nuw %struct.H5FD_log_fapl_t, ptr %37, i32 0, i32 1
  %39 = load i64, ptr %38, align 8, !tbaa !46
  %40 = icmp ne i64 %39, 0
  br i1 %40, label %41, label %80

41:                                               ; preds = %27
  %42 = load ptr, ptr %9, align 8, !tbaa !26
  %43 = getelementptr inbounds nuw %struct.H5FD_log_t, ptr %42, i32 0, i32 22
  %44 = getelementptr inbounds nuw %struct.H5FD_log_fapl_t, ptr %43, i32 0, i32 1
  %45 = load i64, ptr %44, align 8, !tbaa !46
  %46 = and i64 %45, 64
  %47 = icmp ne i64 %46, 0
  br i1 %47, label %48, label %57

48:                                               ; preds = %41
  %49 = load ptr, ptr %9, align 8, !tbaa !26
  %50 = getelementptr inbounds nuw %struct.H5FD_log_t, ptr %49, i32 0, i32 11
  %51 = load ptr, ptr %50, align 8, !tbaa !52
  %52 = load i64, ptr %10, align 8, !tbaa !11
  %53 = getelementptr inbounds nuw i8, ptr %51, i64 %52
  %54 = load i32, ptr %6, align 4, !tbaa !3
  %55 = trunc i32 %54 to i8
  %56 = load i64, ptr %8, align 8, !tbaa !11
  call void @llvm.memset.p0.i64(ptr align 1 %53, i8 %55, i64 %56, i1 false)
  br label %57

57:                                               ; preds = %48, %41
  %58 = load ptr, ptr %9, align 8, !tbaa !26
  %59 = getelementptr inbounds nuw %struct.H5FD_log_t, ptr %58, i32 0, i32 22
  %60 = getelementptr inbounds nuw %struct.H5FD_log_fapl_t, ptr %59, i32 0, i32 1
  %61 = load i64, ptr %60, align 8, !tbaa !46
  %62 = and i64 %61, 262144
  %63 = icmp ne i64 %62, 0
  br i1 %63, label %64, label %79

64:                                               ; preds = %57
  %65 = load ptr, ptr %9, align 8, !tbaa !26
  %66 = getelementptr inbounds nuw %struct.H5FD_log_t, ptr %65, i32 0, i32 21
  %67 = load ptr, ptr %66, align 8, !tbaa !53
  %68 = load i64, ptr %10, align 8, !tbaa !11
  %69 = load i64, ptr %10, align 8, !tbaa !11
  %70 = load i64, ptr %8, align 8, !tbaa !11
  %71 = add i64 %69, %70
  %72 = sub i64 %71, 1
  %73 = load i64, ptr %8, align 8, !tbaa !11
  %74 = load i32, ptr %6, align 4, !tbaa !3
  %75 = sext i32 %74 to i64
  %76 = getelementptr inbounds [7 x ptr], ptr @flavors, i64 0, i64 %75
  %77 = load ptr, ptr %76, align 8, !tbaa !13
  %78 = call i32 (ptr, ptr, ...) @fprintf(ptr noundef %67, ptr noundef @.str.49, i64 noundef %68, i64 noundef %72, i64 noundef %73, ptr noundef %77) #9
  br label %79

79:                                               ; preds = %64, %57
  br label %80

80:                                               ; preds = %79, %27
  %81 = load i64, ptr %10, align 8, !tbaa !11
  store i64 %81, ptr %11, align 8, !tbaa !11
  br label %82

82:                                               ; preds = %80, %19
  %83 = load i64, ptr %11, align 8, !tbaa !11
  call void @llvm.lifetime.end.p0(i64 8, ptr %11) #9
  call void @llvm.lifetime.end.p0(i64 8, ptr %10) #9
  call void @llvm.lifetime.end.p0(i64 8, ptr %9) #9
  ret i64 %83
}