; Function Attrs: nofree nounwind uwtable
define internal i64 @H5FD__log_alloc(ptr noundef captures(none) %0, i32 noundef %1, i64 %2, i64 noundef %3) #8 {
  %5 = load i8, ptr @H5FD_init_g, align 1, !tbaa !3, !range !7, !noundef !8
  %6 = trunc nuw i8 %5 to i1
  %7 = load i8, ptr @H5_libterm_g, align 1, !range !7
  %8 = trunc nuw i8 %7 to i1
  %9 = xor i1 %8, true
  %10 = select i1 %6, i1 true, i1 %9
  br i1 %10, label %11, label %35, !prof !9

11:                                               ; preds = %4
  %12 = getelementptr inbounds nuw i8, ptr %0, i64 88
  %13 = load i64, ptr %12, align 8, !tbaa !57
  %14 = add i64 %13, %3
  store i64 %14, ptr %12, align 8, !tbaa !57
  %15 = getelementptr inbounds nuw i8, ptr %0, i64 1272
  %16 = load i64, ptr %15, align 8, !tbaa !37
  %.not = icmp eq i64 %16, 0
  br i1 %.not, label %35, label %17

17:                                               ; preds = %11
  %18 = and i64 %16, 64
  %.not20 = icmp eq i64 %18, 0
  br i1 %.not20, label %24, label %19

19:                                               ; preds = %17
  %20 = getelementptr inbounds nuw i8, ptr %0, i64 1176
  %21 = load ptr, ptr %20, align 8, !tbaa !43
  %22 = getelementptr inbounds nuw i8, ptr %21, i64 %13
  %23 = trunc i32 %1 to i8
  tail call void @llvm.memset.p0.i64(ptr align 1 %22, i8 %23, i64 %3, i1 false)
  %.pre = load i64, ptr %15, align 8, !tbaa !37
  br label %24

24:                                               ; preds = %19, %17
  %25 = phi i64 [ %.pre, %19 ], [ %16, %17 ]
  %26 = and i64 %25, 262144
  %.not21 = icmp eq i64 %26, 0
  br i1 %.not21, label %35, label %27

27:                                               ; preds = %24
  %28 = getelementptr inbounds nuw i8, ptr %0, i64 1256
  %29 = load ptr, ptr %28, align 8, !tbaa !45
  %30 = add i64 %14, -1
  %31 = sext i32 %1 to i64
  %32 = getelementptr inbounds [7 x ptr], ptr @flavors, i64 0, i64 %31
  %33 = load ptr, ptr %32, align 8, !tbaa !61
  %34 = tail call i32 (ptr, ptr, ...) @fprintf(ptr noundef %29, ptr noundef nonnull @.str.49, i64 noundef %13, i64 noundef %30, i64 noundef %3, ptr noundef %33) #19
  br label %35

35:                                               ; preds = %11, %27, %24, %4
  %.0 = phi i64 [ -1, %4 ], [ %13, %24 ], [ %13, %27 ], [ %13, %11 ]
  ret i64 %.0
}